Archive member included to satisfy reference by file (symbol)

obj\libc.a(crt.o)             (_start)
obj\libc.a(libc.o)            obj\quicksort.o (putc)
obj\libsys.a(boot.o)          (_reset)
obj\libsys.a(kernel.o)        obj\libsys.a(boot.o) (sys_read)

Memory Configuration

Name             Origin             Length             Attributes
*default*        0x00000000         0xffffffff

Linker script and memory map


.kernel         0x00000000      0x24e
 obj\libsys.a:boot.o()
 .text          0x00000000       0x84 obj\libsys.a(boot.o)
                0x00000000                _reset
                0x0000005c                kputc
                0x00000068                kgetc
 .data          0x00000084        0x0 obj\libsys.a(boot.o)
 .bss           0x00000084        0x0 obj\libsys.a(boot.o)
 .rodata        0x00000084       0x14 obj\libsys.a(boot.o)
 .ARM.attributes
                0x00000098       0x20 obj\libsys.a(boot.o)
 obj\libsys.a:kernel.o()
 .text          0x000000b8       0xf8 obj\libsys.a(kernel.o)
                0x000000b8                sys_read
                0x00000108                sys_write
                0x0000015c                panic
 .data          0x000001b0        0x0 obj\libsys.a(kernel.o)
 .bss           0x000001b0        0x0 obj\libsys.a(kernel.o)
 .comment       0x000001b0       0x6e obj\libsys.a(kernel.o)
                                 0x6f (size before relaxing)
 .ARM.attributes
                0x0000021e       0x30 obj\libsys.a(kernel.o)
                0x00001000                . = 0x1000

.text           0x00001000      0x8de
 obj\libc.a:crt.o()
 .text          0x00001000       0x18 obj\libc.a(crt.o)
                0x00001000                _start
                0x00001008                read
                0x00001010                write
 .data          0x00001018        0x0 obj\libc.a(crt.o)
 .bss           0x00001018        0x0 obj\libc.a(crt.o)
 .ARM.attributes
                0x00001018       0x20 obj\libc.a(crt.o)
 obj\libc.a:libc.o()
 .text          0x00001038      0x5a4 obj\libc.a(libc.o)
                0x00001038                getc
                0x00001070                putc
                0x000010ac                puts
                0x00001108                gets
                0x00001214                atoi
                0x000013a0                itoa
                0x00001560                geti
                0x0000159c                puti
 .data          0x000015dc        0x0 obj\libc.a(libc.o)
 .bss           0x000015dc        0x0 obj\libc.a(libc.o)
 .comment       0x000015dc       0x6f obj\libc.a(libc.o)
 .ARM.attributes
                0x000015dc       0x30 obj\libc.a(libc.o)
 *.o()
 .text          0x0000160c      0x218 obj\quicksort.o
                0x0000160c                quicksort
                0x000017b4                main
 .data          0x00001824       0x1c obj\quicksort.o
                0x00001824                nums
 .bss           0x00001840        0x0 obj\quicksort.o
 .comment       0x00001840       0x6e obj\quicksort.o
                                 0x6f (size before relaxing)
 .ARM.attributes
                0x000018ae       0x30 obj\quicksort.o
 .iplt          0x000018de        0x0 obj\quicksort.o
 .rel.iplt      0x000018de        0x0 obj\quicksort.o
 .igot.plt      0x000018de        0x0 obj\quicksort.o
LOAD obj\quicksort.o
LOAD obj\libc.a
LOAD obj\libsys.a
OUTPUT(quicksort.exe elf32-littlearm)

.glue_7         0x000018e0        0x0
 .glue_7        0x000018e0        0x0 linker stubs

.glue_7t        0x000018e0        0x0
 .glue_7t       0x000018e0        0x0 linker stubs

.vfp11_veneer   0x000018e0        0x0
 .vfp11_veneer  0x000018e0        0x0 linker stubs

.v4_bx          0x000018e0        0x0
 .v4_bx         0x000018e0        0x0 linker stubs
